target datalayout = "e-m:e-p270:32:32-p271:32:32-p272:64:64-i64:64-i128:128-f80:128-n8:16:32:64-S128"
target triple = "x86_64-pc-linux-gnu"

%union.pthread_mutex_t = type { %struct.__pthread_mutex_s }
%struct.__pthread_mutex_s = type { i32, i32, i32, i32, i32, i16, i16, %struct.__pthread_internal_list }
%struct.__pthread_internal_list = type { ptr, ptr }
%union.pthread_cond_t = type { %struct.__pthread_cond_s }
%struct.__pthread_cond_s = type { %union.__atomic_wide_counter, %union.__atomic_wide_counter, [2 x i32], [2 x i32], i32, i32, [2 x i32] }
%union.__atomic_wide_counter = type { i64 }
%struct.log_options_t = type { i32, i32, i32, i8, i8, i8, i32 }
%struct.slurmd_config = type { ptr, ptr, i32, [4096 x i8], ptr, ptr, ptr, ptr, i16, i16, i16, i16, ptr, i16, i64, i16, i16, i16, i16, i16, i16, i16, i16, i16, i16, i16, i64, i64, i32, i32, i16, ptr, ptr, ptr, i32, ptr, ptr, ptr, ptr, ptr, ptr, ptr, ptr, ptr, ptr, i32, ptr, ptr, i16, i32, i32, %struct.log_options_t, i32, i16, i64, i8, i8, i8, i8, i8, %union.pthread_mutex_t, i16, ptr, %union.pthread_cond_t, ptr, %union.pthread_cond_t, i8, i8, ptr, ptr }
%struct.conmgr_callback_args_t = type { ptr, i32 }
%struct.timeval = type { i64, i64 }

@conf = dso_local global ptr null, align 8
@.str.17 = private unnamed_addr constant [12 x i8] c"_on_sigusr2\00", align 1
@.str.78 = private unnamed_addr constant [43 x i8] c"Caught SIGUSR2. Triggering logging update.\00", align 1

; Function Attrs: nounwind uwtable
define dso_local void @update_stepd_logging(i1 noundef zeroext %0) #0 {
  %2 = alloca i8, align 1
  %3 = alloca ptr, align 8
  %4 = zext i1 %0 to i8
  store i8 %4, ptr %2, align 1
  call void @llvm.lifetime.start.p0(i64 8, ptr %3) #11
  %5 = load ptr, ptr @conf, align 8
  %6 = getelementptr inbounds nuw %struct.slurmd_config, ptr %5, i32 0, i32 46
  %7 = load ptr, ptr %6, align 8
  %8 = load ptr, ptr @conf, align 8
  %9 = getelementptr inbounds nuw %struct.slurmd_config, ptr %8, i32 0, i32 35
  %10 = load ptr, ptr %9, align 8
  %11 = call ptr @stepd_available(ptr noundef %7, ptr noundef %10)
  store ptr %11, ptr %3, align 8
  %12 = load ptr, ptr %3, align 8
  %13 = call i32 @list_for_each(ptr noundef %12, ptr noundef @_reconfig_stepd, ptr noundef %2)
  br label %14

14:                                               ; preds = %1
  %15 = load ptr, ptr %3, align 8
  %16 = icmp ne ptr %15, null
  br i1 %16, label %17, label %19

17:                                               ; preds = %14
  %18 = load ptr, ptr %3, align 8
  call void @list_destroy(ptr noundef %18)
  br label %19

19:                                               ; preds = %17, %14
  store ptr null, ptr %3, align 8
  br label %20

20:                                               ; preds = %19
  br label %21

21:                                               ; preds = %20
  call void @llvm.lifetime.end.p0(i64 8, ptr %3) #11
  ret void
}

; Function Attrs: nounwind uwtable
define internal void @_on_sigusr2(ptr %0, i32 %1, ptr noundef %2) #0 {
  %4 = alloca %struct.conmgr_callback_args_t, align 8
  %5 = alloca ptr, align 8
  %6 = alloca %struct.timeval, align 8
  %7 = alloca %struct.timeval, align 8
  %8 = alloca [20 x i8], align 16
  %9 = alloca i64, align 8
  %10 = alloca i32, align 4
  %11 = getelementptr inbounds nuw { ptr, i32 }, ptr %4, i32 0, i32 0
  store ptr %0, ptr %11, align 8
  %12 = getelementptr inbounds nuw { ptr, i32 }, ptr %4, i32 0, i32 1
  store i32 %1, ptr %12, align 8
  store ptr %2, ptr %5, align 8
  call void @llvm.lifetime.start.p0(i64 16, ptr %6) #11
  call void @llvm.lifetime.start.p0(i64 16, ptr %7) #11
  call void @llvm.lifetime.start.p0(i64 20, ptr %8) #11
  call void @llvm.memset.p0.i64(ptr align 16 %8, i8 0, i64 20, i1 false)
  call void @llvm.lifetime.start.p0(i64 8, ptr %9) #11
  %13 = getelementptr inbounds nuw %struct.conmgr_callback_args_t, ptr %4, i32 0, i32 1
  %14 = load i32, ptr %13, align 8
  %15 = icmp eq i32 %14, 3
  br i1 %15, label %16, label %17

16:                                               ; preds = %3
  store i32 1, ptr %10, align 4
  br label %34

17:                                               ; preds = %3
  br label %18

18:                                               ; preds = %17
  br label %19

19:                                               ; preds = %18
  %20 = call i32 @get_log_level()
  %21 = icmp sge i32 %20, 3
  br i1 %21, label %22, label %23

22:                                               ; preds = %19
  call void (i32, ptr, ...) @log_var(i32 noundef 3, ptr noundef @.str.78)
  br label %23

23:                                               ; preds = %22, %19
  br label %24

24:                                               ; preds = %23
  br label %25

25:                                               ; preds = %24
  br label %26

26:                                               ; preds = %25
  br label %27

27:                                               ; preds = %26
  %28 = call i32 @gettimeofday(ptr noundef %6, ptr noundef null) #11
  call void @update_slurmd_logging(i32 noundef 10)
  call void @update_stepd_logging(i1 noundef zeroext false)
  br label %29

29:                                               ; preds = %27
  %30 = call i32 @gettimeofday(ptr noundef %7, ptr noundef null) #11
  %31 = getelementptr inbounds [20 x i8], ptr %8, i64 0, i64 0
  call void @slurm_diff_tv_str(ptr noundef %6, ptr noundef %7, ptr noundef %31, i32 noundef 20, ptr noundef @.str.17, i64 noundef 5000000, ptr noundef %9)
  br label %32

32:                                               ; preds = %29
  br label %33

33:                                               ; preds = %32
  store i32 0, ptr %10, align 4
  br label %34

34:                                               ; preds = %33, %16
  call void @llvm.lifetime.end.p0(i64 8, ptr %9) #11
  call void @llvm.lifetime.end.p0(i64 20, ptr %8) #11
  call void @llvm.lifetime.end.p0(i64 16, ptr %7) #11
  call void @llvm.lifetime.end.p0(i64 16, ptr %6) #11
  %35 = load i32, ptr %10, align 4
  switch i32 %35, label %37 [
    i32 0, label %36
    i32 1, label %36
  ]

36:                                               ; preds = %34, %34
  ret void

37:                                               ; preds = %34
  unreachable
}