; Function Attrs: nounwind uwtable
define internal void @_on_sigusr2(ptr readnone captures(none) %0, i32 %1, ptr readnone captures(none) %2) #0 {
  %4 = alloca i8, align 1
  %5 = alloca %struct.timeval, align 8
  %6 = alloca %struct.timeval, align 8
  %7 = alloca [20 x i8], align 16
  %8 = alloca i64, align 8
  call void @llvm.lifetime.start.p0(i64 16, ptr nonnull %5) #18
  call void @llvm.lifetime.start.p0(i64 16, ptr nonnull %6) #18
  call void @llvm.lifetime.start.p0(i64 20, ptr nonnull %7) #18
  call void @llvm.memset.p0.i64(ptr noundef nonnull align 16 dereferenceable(20) %7, i8 0, i64 20, i1 false)
  call void @llvm.lifetime.start.p0(i64 8, ptr nonnull %8) #18
  %9 = icmp eq i32 %1, 3
  br i1 %9, label %25, label %10

10:                                               ; preds = %3
  %11 = tail call i32 @get_log_level() #18
  %12 = icmp sgt i32 %11, 2
  br i1 %12, label %13, label %14

13:                                               ; preds = %10
  tail call void (i32, ptr, ...) @log_var(i32 noundef 3, ptr noundef nonnull @.str.78) #18
  br label %14

14:                                               ; preds = %13, %10
  %15 = call i32 @gettimeofday(ptr noundef nonnull %5, ptr noundef null) #18
  tail call void @update_slurmd_logging(i32 noundef 10)
  call void @llvm.lifetime.start.p0(i64 1, ptr nonnull %4)
  store i8 0, ptr %4, align 1
  %16 = load ptr, ptr @conf, align 8
  %17 = getelementptr inbounds nuw i8, ptr %16, i64 4360
  %18 = load ptr, ptr %17, align 8
  %19 = getelementptr inbounds nuw i8, ptr %16, i64 4272
  %20 = load ptr, ptr %19, align 8
  %21 = tail call ptr @stepd_available(ptr noundef %18, ptr noundef %20) #18
  %22 = call i32 @list_for_each(ptr noundef %21, ptr noundef nonnull @_reconfig_stepd, ptr noundef nonnull %4) #18
  %.not.i = icmp eq ptr %21, null
  br i1 %.not.i, label %update_stepd_logging.exit, label %23

23:                                               ; preds = %14
  call void @list_destroy(ptr noundef nonnull %21) #18
  br label %update_stepd_logging.exit

update_stepd_logging.exit:                        ; preds = %14, %23
  call void @llvm.lifetime.end.p0(i64 1, ptr nonnull %4)
  %24 = call i32 @gettimeofday(ptr noundef nonnull %6, ptr noundef null) #18
  call void @slurm_diff_tv_str(ptr noundef nonnull %5, ptr noundef nonnull %6, ptr noundef nonnull %7, i32 noundef 20, ptr noundef nonnull @.str.17, i64 noundef 5000000, ptr noundef nonnull %8) #18
  br label %25

25:                                               ; preds = %3, %update_stepd_logging.exit
  call void @llvm.lifetime.end.p0(i64 8, ptr nonnull %8) #18
  call void @llvm.lifetime.end.p0(i64 20, ptr nonnull %7) #18
  call void @llvm.lifetime.end.p0(i64 16, ptr nonnull %6) #18
  call void @llvm.lifetime.end.p0(i64 16, ptr nonnull %5) #18
  ret void
}